; ModuleID = '17/1319.c'
source_filename = "17/1319.c"
target datalayout = "e-m:e-p270:32:32-p271:32:32-p272:64:64-i64:64-f80:128-n8:16:32:64-S128"
target triple = "x86_64-pc-linux-gnu"

@.str = private unnamed_addr constant [3 x i8] c"%d\00", align 1
@.str.1 = private unnamed_addr constant [3 x i8] c"%s\00", align 1
@.str.2 = private unnamed_addr constant [3 x i8] c"%c\00", align 1
@.str.3 = private unnamed_addr constant [2 x i8] c"\0A\00", align 1

; Function Attrs: noinline nounwind uwtable
define dso_local i32 @main() #0 {
  %1 = alloca i32, align 4
  %2 = alloca i32, align 4
  %3 = alloca i32, align 4
  %4 = alloca i32, align 4
  %5 = alloca i32, align 4
  %6 = alloca i32, align 4
  %7 = alloca i32, align 4
  %8 = alloca i32, align 4
  %9 = alloca i32, align 4
  %10 = alloca i32, align 4
  %11 = alloca i32, align 4
  %12 = alloca [100 x i32], align 16
  %13 = alloca [1000 x [150 x i8]], align 16
  %14 = alloca [1000 x [150 x i8]], align 16
  store i32 0, i32* %1, align 4
  %15 = call i32 (i8*, ...) @__isoc99_scanf(i8* getelementptr inbounds ([3 x i8], [3 x i8]* @.str, i64 0, i64 0), i32* %3)
  store i32 0, i32* %2, align 4
  br label %16

16:                                               ; preds = %255, %0
  %17 = load i32, i32* %2, align 4
  %18 = load i32, i32* %3, align 4
  %19 = icmp slt i32 %17, %18
  br i1 %19, label %20, label %258

20:                                               ; preds = %16
  %21 = load i32, i32* %2, align 4
  %22 = sext i32 %21 to i64
  %23 = getelementptr inbounds [1000 x [150 x i8]], [1000 x [150 x i8]]* %13, i64 0, i64 %22
  %24 = getelementptr inbounds [150 x i8], [150 x i8]* %23, i64 0, i64 0
  %25 = call i32 (i8*, ...) @__isoc99_scanf(i8* getelementptr inbounds ([3 x i8], [3 x i8]* @.str.1, i64 0, i64 0), i8* %24)
  %26 = load i32, i32* %2, align 4
  %27 = sext i32 %26 to i64
  %28 = getelementptr inbounds [1000 x [150 x i8]], [1000 x [150 x i8]]* %13, i64 0, i64 %27
  %29 = getelementptr inbounds [150 x i8], [150 x i8]* %28, i64 0, i64 0
  %30 = call i64 @strlen(i8* %29) #3
  %31 = trunc i64 %30 to i32
  %32 = load i32, i32* %2, align 4
  %33 = sext i32 %32 to i64
  %34 = getelementptr inbounds [100 x i32], [100 x i32]* %12, i64 0, i64 %33
  store i32 %31, i32* %34, align 4
  store i32 0, i32* %6, align 4
  store i32 0, i32* %10, align 4
  br label %35

35:                                               ; preds = %106, %20
  %36 = load i32, i32* %10, align 4
  %37 = load i32, i32* %2, align 4
  %38 = sext i32 %37 to i64
  %39 = getelementptr inbounds [100 x i32], [100 x i32]* %12, i64 0, i64 %38
  %40 = load i32, i32* %39, align 4
  %41 = icmp slt i32 %36, %40
  br i1 %41, label %42, label %109

42:                                               ; preds = %35
  %43 = load i32, i32* %2, align 4
  %44 = sext i32 %43 to i64
  %45 = getelementptr inbounds [1000 x [150 x i8]], [1000 x [150 x i8]]* %13, i64 0, i64 %44
  %46 = load i32, i32* %10, align 4
  %47 = sext i32 %46 to i64
  %48 = getelementptr inbounds [150 x i8], [150 x i8]* %45, i64 0, i64 %47
  %49 = load i8, i8* %48, align 1
  %50 = sext i8 %49 to i32
  %51 = icmp eq i32 %50, 40
  br i1 %51, label %52, label %61

52:                                               ; preds = %42
  %53 = load i32, i32* %2, align 4
  %54 = sext i32 %53 to i64
  %55 = getelementptr inbounds [1000 x [150 x i8]], [1000 x [150 x i8]]* %14, i64 0, i64 %54
  %56 = load i32, i32* %10, align 4
  %57 = sext i32 %56 to i64
  %58 = getelementptr inbounds [150 x i8], [150 x i8]* %55, i64 0, i64 %57
  store i8 36, i8* %58, align 1
  %59 = load i32, i32* %6, align 4
  %60 = add nsw i32 %59, 1
  store i32 %60, i32* %6, align 4
  br label %61

61:                                               ; preds = %52, %42
  %62 = load i32, i32* %2, align 4
  %63 = sext i32 %62 to i64
  %64 = getelementptr inbounds [1000 x [150 x i8]], [1000 x [150 x i8]]* %13, i64 0, i64 %63
  %65 = load i32, i32* %10, align 4
  %66 = sext i32 %65 to i64
  %67 = getelementptr inbounds [150 x i8], [150 x i8]* %64, i64 0, i64 %66
  %68 = load i8, i8* %67, align 1
  %69 = sext i8 %68 to i32
  %70 = icmp eq i32 %69, 41
  br i1 %70, label %71, label %78

71:                                               ; preds = %61
  %72 = load i32, i32* %2, align 4
  %73 = sext i32 %72 to i64
  %74 = getelementptr inbounds [1000 x [150 x i8]], [1000 x [150 x i8]]* %14, i64 0, i64 %73
  %75 = load i32, i32* %10, align 4
  %76 = sext i32 %75 to i64
  %77 = getelementptr inbounds [150 x i8], [150 x i8]* %74, i64 0, i64 %76
  store i8 63, i8* %77, align 1
  br label %78

78:                                               ; preds = %71, %61
  %79 = load i32, i32* %2, align 4
  %80 = sext i32 %79 to i64
  %81 = getelementptr inbounds [1000 x [150 x i8]], [1000 x [150 x i8]]* %13, i64 0, i64 %80
  %82 = load i32, i32* %10, align 4
  %83 = sext i32 %82 to i64
  %84 = getelementptr inbounds [150 x i8], [150 x i8]* %81, i64 0, i64 %83
  %85 = load i8, i8* %84, align 1
  %86 = sext i8 %85 to i32
  %87 = icmp ne i32 %86, 40
  br i1 %87, label %88, label %105

88:                                               ; preds = %78
  %89 = load i32, i32* %2, align 4
  %90 = sext i32 %89 to i64
  %91 = getelementptr inbounds [1000 x [150 x i8]], [1000 x [150 x i8]]* %13, i64 0, i64 %90
  %92 = load i32, i32* %10, align 4
  %93 = sext i32 %92 to i64
  %94 = getelementptr inbounds [150 x i8], [150 x i8]* %91, i64 0, i64 %93
  %95 = load i8, i8* %94, align 1
  %96 = sext i8 %95 to i32
  %97 = icmp ne i32 %96, 41
  br i1 %97, label %98, label %105

98:                                               ; preds = %88
  %99 = load i32, i32* %2, align 4
  %100 = sext i32 %99 to i64
  %101 = getelementptr inbounds [1000 x [150 x i8]], [1000 x [150 x i8]]* %14, i64 0, i64 %100
  %102 = load i32, i32* %10, align 4
  %103 = sext i32 %102 to i64
  %104 = getelementptr inbounds [150 x i8], [150 x i8]* %101, i64 0, i64 %103
  store i8 32, i8* %104, align 1
  br label %105

105:                                              ; preds = %98, %88, %78
  br label %106

106:                                              ; preds = %105
  %107 = load i32, i32* %10, align 4
  %108 = add nsw i32 %107, 1
  store i32 %108, i32* %10, align 4
  br label %35

109:                                              ; preds = %35
  store i32 0, i32* %11, align 4
  br label %110

110:                                              ; preds = %207, %109
  %111 = load i32, i32* %11, align 4
  %112 = load i32, i32* %6, align 4
  %113 = icmp slt i32 %111, %112
  br i1 %113, label %114, label %210

114:                                              ; preds = %110
  store i32 0, i32* %10, align 4
  br label %115

115:                                              ; preds = %203, %114
  %116 = load i32, i32* %10, align 4
  %117 = load i32, i32* %2, align 4
  %118 = sext i32 %117 to i64
  %119 = getelementptr inbounds [100 x i32], [100 x i32]* %12, i64 0, i64 %118
  %120 = load i32, i32* %119, align 4
  %121 = icmp slt i32 %116, %120
  br i1 %121, label %122, label %206

122:                                              ; preds = %115
  store i32 -1, i32* %5, align 4
  store i32 -1, i32* %7, align 4
  store i32 -1, i32* %4, align 4
  %123 = load i32, i32* %2, align 4
  %124 = sext i32 %123 to i64
  %125 = getelementptr inbounds [1000 x [150 x i8]], [1000 x [150 x i8]]* %14, i64 0, i64 %124
  %126 = load i32, i32* %10, align 4
  %127 = sext i32 %126 to i64
  %128 = getelementptr inbounds [150 x i8], [150 x i8]* %125, i64 0, i64 %127
  %129 = load i8, i8* %128, align 1
  %130 = sext i8 %129 to i32
  %131 = icmp eq i32 %130, 36
  br i1 %131, label %132, label %202

132:                                              ; preds = %122
  %133 = load i32, i32* %10, align 4
  store i32 %133, i32* %4, align 4
  %134 = load i32, i32* %4, align 4
  store i32 %134, i32* %8, align 4
  %135 = load i32, i32* %4, align 4
  store i32 %135, i32* %8, align 4
  br label %136

136:                                              ; preds = %156, %132
  %137 = load i32, i32* %8, align 4
  %138 = load i32, i32* %2, align 4
  %139 = sext i32 %138 to i64
  %140 = getelementptr inbounds [100 x i32], [100 x i32]* %12, i64 0, i64 %139
  %141 = load i32, i32* %140, align 4
  %142 = icmp slt i32 %137, %141
  br i1 %142, label %143, label %159

143:                                              ; preds = %136
  %144 = load i32, i32* %2, align 4
  %145 = sext i32 %144 to i64
  %146 = getelementptr inbounds [1000 x [150 x i8]], [1000 x [150 x i8]]* %14, i64 0, i64 %145
  %147 = load i32, i32* %8, align 4
  %148 = sext i32 %147 to i64
  %149 = getelementptr inbounds [150 x i8], [150 x i8]* %146, i64 0, i64 %148
  %150 = load i8, i8* %149, align 1
  %151 = sext i8 %150 to i32
  %152 = icmp eq i32 %151, 63
  br i1 %152, label %153, label %155

153:                                              ; preds = %143
  %154 = load i32, i32* %8, align 4
  store i32 %154, i32* %7, align 4
  br label %159

155:                                              ; preds = %143
  br label %156

156:                                              ; preds = %155
  %157 = load i32, i32* %8, align 4
  %158 = add nsw i32 %157, 1
  store i32 %158, i32* %8, align 4
  br label %136

159:                                              ; preds = %153, %136
  %160 = load i32, i32* %7, align 4
  %161 = sub nsw i32 %160, 1
  store i32 %161, i32* %9, align 4
  br label %162

162:                                              ; preds = %179, %159
  %163 = load i32, i32* %9, align 4
  %164 = load i32, i32* %4, align 4
  %165 = icmp sge i32 %163, %164
  br i1 %165, label %166, label %182

166:                                              ; preds = %162
  %167 = load i32, i32* %2, align 4
  %168 = sext i32 %167 to i64
  %169 = getelementptr inbounds [1000 x [150 x i8]], [1000 x [150 x i8]]* %14, i64 0, i64 %168
  %170 = load i32, i32* %9, align 4
  %171 = sext i32 %170 to i64
  %172 = getelementptr inbounds [150 x i8], [150 x i8]* %169, i64 0, i64 %171
  %173 = load i8, i8* %172, align 1
  %174 = sext i8 %173 to i32
  %175 = icmp eq i32 %174, 36
  br i1 %175, label %176, label %178

176:                                              ; preds = %166
  %177 = load i32, i32* %9, align 4
  store i32 %177, i32* %5, align 4
  br label %182

178:                                              ; preds = %166
  br label %179

179:                                              ; preds = %178
  %180 = load i32, i32* %9, align 4
  %181 = add nsw i32 %180, -1
  store i32 %181, i32* %9, align 4
  br label %162

182:                                              ; preds = %176, %162
  %183 = load i32, i32* %5, align 4
  %184 = icmp ne i32 %183, -1
  br i1 %184, label %185, label %201

185:                                              ; preds = %182
  %186 = load i32, i32* %7, align 4
  %187 = icmp ne i32 %186, -1
  br i1 %187, label %188, label %201

188:                                              ; preds = %185
  %189 = load i32, i32* %2, align 4
  %190 = sext i32 %189 to i64
  %191 = getelementptr inbounds [1000 x [150 x i8]], [1000 x [150 x i8]]* %14, i64 0, i64 %190
  %192 = load i32, i32* %5, align 4
  %193 = sext i32 %192 to i64
  %194 = getelementptr inbounds [150 x i8], [150 x i8]* %191, i64 0, i64 %193
  store i8 32, i8* %194, align 1
  %195 = load i32, i32* %2, align 4
  %196 = sext i32 %195 to i64
  %197 = getelementptr inbounds [1000 x [150 x i8]], [1000 x [150 x i8]]* %14, i64 0, i64 %196
  %198 = load i32, i32* %7, align 4
  %199 = sext i32 %198 to i64
  %200 = getelementptr inbounds [150 x i8], [150 x i8]* %197, i64 0, i64 %199
  store i8 32, i8* %200, align 1
  br label %201

201:                                              ; preds = %188, %185, %182
  br label %206

202:                                              ; preds = %122
  br label %203

203:                                              ; preds = %202
  %204 = load i32, i32* %10, align 4
  %205 = add nsw i32 %204, 1
  store i32 %205, i32* %10, align 4
  br label %115

206:                                              ; preds = %201, %115
  br label %207

207:                                              ; preds = %206
  %208 = load i32, i32* %11, align 4
  %209 = add nsw i32 %208, 1
  store i32 %209, i32* %11, align 4
  br label %110

210:                                              ; preds = %110
  store i32 0, i32* %10, align 4
  br label %211

211:                                              ; preds = %228, %210
  %212 = load i32, i32* %10, align 4
  %213 = load i32, i32* %2, align 4
  %214 = sext i32 %213 to i64
  %215 = getelementptr inbounds [100 x i32], [100 x i32]* %12, i64 0, i64 %214
  %216 = load i32, i32* %215, align 4
  %217 = icmp slt i32 %212, %216
  br i1 %217, label %218, label %231

218:                                              ; preds = %211
  %219 = load i32, i32* %2, align 4
  %220 = sext i32 %219 to i64
  %221 = getelementptr inbounds [1000 x [150 x i8]], [1000 x [150 x i8]]* %13, i64 0, i64 %220
  %222 = load i32, i32* %10, align 4
  %223 = sext i32 %222 to i64
  %224 = getelementptr inbounds [150 x i8], [150 x i8]* %221, i64 0, i64 %223
  %225 = load i8, i8* %224, align 1
  %226 = sext i8 %225 to i32
  %227 = call i32 (i8*, ...) @printf(i8* getelementptr inbounds ([3 x i8], [3 x i8]* @.str.2, i64 0, i64 0), i32 %226)
  br label %228

228:                                              ; preds = %218
  %229 = load i32, i32* %10, align 4
  %230 = add nsw i32 %229, 1
  store i32 %230, i32* %10, align 4
  br label %211

231:                                              ; preds = %211
  %232 = call i32 (i8*, ...) @printf(i8* getelementptr inbounds ([2 x i8], [2 x i8]* @.str.3, i64 0, i64 0))
  store i32 0, i32* %10, align 4
  br label %233

233:                                              ; preds = %250, %231
  %234 = load i32, i32* %10, align 4
  %235 = load i32, i32* %2, align 4
  %236 = sext i32 %235 to i64
  %237 = getelementptr inbounds [100 x i32], [100 x i32]* %12, i64 0, i64 %236
  %238 = load i32, i32* %237, align 4
  %239 = icmp slt i32 %234, %238
  br i1 %239, label %240, label %253

240:                                              ; preds = %233
  %241 = load i32, i32* %2, align 4
  %242 = sext i32 %241 to i64
  %243 = getelementptr inbounds [1000 x [150 x i8]], [1000 x [150 x i8]]* %14, i64 0, i64 %242
  %244 = load i32, i32* %10, align 4
  %245 = sext i32 %244 to i64
  %246 = getelementptr inbounds [150 x i8], [150 x i8]* %243, i64 0, i64 %245
  %247 = load i8, i8* %246, align 1
  %248 = sext i8 %247 to i32
  %249 = call i32 (i8*, ...) @printf(i8* getelementptr inbounds ([3 x i8], [3 x i8]* @.str.2, i64 0, i64 0), i32 %248)
  br label %250

250:                                              ; preds = %240
  %251 = load i32, i32* %10, align 4
  %252 = add nsw i32 %251, 1
  store i32 %252, i32* %10, align 4
  br label %233

253:                                              ; preds = %233
  %254 = call i32 (i8*, ...) @printf(i8* getelementptr inbounds ([2 x i8], [2 x i8]* @.str.3, i64 0, i64 0))
  br label %255

255:                                              ; preds = %253
  %256 = load i32, i32* %2, align 4
  %257 = add nsw i32 %256, 1
  store i32 %257, i32* %2, align 4
  br label %16

258:                                              ; preds = %16
  ret i32 0
}

declare dso_local i32 @__isoc99_scanf(i8*, ...) #1

; Function Attrs: nounwind readonly
declare dso_local i64 @strlen(i8*) #2

declare dso_local i32 @printf(i8*, ...) #1


!llvm.module.flags = !{!0}
!llvm.ident = !{!1}

!0 = !{i32 1, !"wchar_size", i32 4}
!1 = !{!"clang version 10.0.0-4ubuntu1 "}
